Certificate:
    Data:
        Version: 3 (0x2)
        Serial Number: 1 (0x1)
    Signature Algorithm: sha256WithRSAEncryption
        Issuer: C=DE, O=DomainDotCom AB, OU=DomainDotCom External TTP Network, CN=DomainDotCom External CA Root
        Validity
            Not Before: Jan  6 20:58:37 2019 GMT
            Not After : Jan  6 20:58:37 2020 GMT
        Subject: C=DE, ST=Hessen, L=Frankfurt, O=Company CA Limited, CN=Company RSA Certification Authority
        Subject Public Key Info:
            Public Key Algorithm: rsaEncryption
                Public-Key: (2048 bit)
                Modulus:
                    00:a0:0f:e6:a0:f6:6b:1e:9e:2b:74:91:71:15:37:
                    b3:0d:66:b8:c5:1f:69:f9:50:16:d8:f6:0a:18:07:
                    16:b0:dc:ba:50:0e:e1:f5:46:b8:c3:7a:3e:63:39:
                    d6:38:ab:32:f8:ba:9d:13:7e:dc:6a:75:aa:fb:82:
                    fa:17:a4:3e:a0:db:72:83:1a:a1:71:c0:6d:b7:34:
                    c1:87:f3:fa:9c:e3:82:7d:f3:88:99:16:4f:16:e2:
                    df:1e:19:68:c1:00:cb:c8:29:9b:91:bc:c8:83:8a:
                    d2:5a:34:b3:7c:32:8e:7d:e4:50:b1:f1:df:d9:d2:
                    bc:ef:af:b9:0c:03:f6:33:7c:52:57:55:3d:ee:85:
                    cd:fa:46:96:08:5a:80:a2:48:58:5c:bb:b9:41:61:
                    b1:08:af:90:65:e5:a0:b6:48:62:e9:bd:39:51:b8:
                    60:27:ee:fb:26:12:0c:58:ec:00:56:74:de:a3:41:
                    88:6c:d6:8c:54:8f:89:a7:38:3c:d6:b8:8c:f2:7b:
                    06:b2:34:a6:27:40:98:11:a3:97:6f:7c:36:96:0a:
                    08:24:33:e1:fd:ed:27:e5:7c:d9:82:53:4c:7a:24:
                    26:cc:52:e9:7b:16:9f:d1:6c:51:41:af:08:f0:e2:
                    41:5a:fe:07:1f:74:e4:a5:b8:26:a3:b6:cf:e6:be:
                    9c:6b
                Exponent: 65537 (0x10001)
        X509v3 extensions:
            X509v3 Authority Key Identifier: 
                keyid:FF:4E:10:11:1E:F0:09:D9:3E:4E:31:DC:F3:0E:06:77:58:75:0D:DE

            X509v3 Subject Key Identifier: 
                43:DB:6B:E0:96:1A:B2:55:A6:ED:90:7F:B1:D4:5C:DB:04:2C:EC:11
            X509v3 Key Usage: critical
                Digital Signature, Certificate Sign, CRL Sign
            X509v3 Basic Constraints: critical
                CA:TRUE
            X509v3 Certificate Policies: 
                Policy: X509v3 Any Policy

            X509v3 CRL Distribution Points: 

                Full Name:
                  URI:http://crl.domain.com/DomainDotComExternalCARoot.crl

            Authority Information Access: 
                OCSP - URI:http://ocsp.domain.com

    Signature Algorithm: sha256WithRSAEncryption
         c0:80:70:26:fe:ed:1c:c7:26:f3:60:02:01:fc:3f:92:92:59:
         67:85:24:f5:4e:5c:f9:65:2a:83:45:8e:a2:ba:42:b9:a2:8c:
         99:c7:51:09:28:0f:81:bc:c0:e4:9e:cb:b6:24:7d:21:09:7b:
         6b:9c:ee:e1:96:c6:a4:a3:bc:ea:a1:a5:c7:8f:49:44:a1:e6:
         4c:e8:74:50:d7:69:08:9c:0a:7f:b6:c5:66:12:c5:9a:5f:42:
         05:f2:81:ec:6d:2c:c5:9f:16:ed:70:dc:89:aa:62:db:d1:66:
         3c:13:bf:ed:37:84:5e:be:ef:35:31:04:a2:d0:09:b9:bd:d0:
         d4:43:16:82:0d:1d:74:f4:64:c7:f6:78:30:b0:1f:f1:54:b1:
         9b:35:a1:a7:ab:4f:33:42:49:58:a9:92:2f:3d:4c:88:a8:86:
         3f:f7:4f:67:0c:d6:f3:ad:26:a3:02:37:6f:99:4a:6d:8f:db:
         e8:07:b8:a0:3f:c3:77:36:df:23:26:61:d8:e3:77:bc:89:5e:
         da:df:e9:36:49:eb:77:7b:df:b8:07:2a:b0:e0:7a:b7:03:ac:
         cc:a8:99:ad:8e:07:d6:22:30:a6:33:88:2f:e3:d8:13:b7:e7:
         a7:96:71:45:e1:eb:22:c9:60:85:a6:e3:00:5b:52:43:ee:d6:
         38:bb:cf:f2
-----BEGIN CERTIFICATE-----
MIIEZjCCA06gAwIBAgIBATANBgkqhkiG9w0BAQsFADB7MQswCQYDVQQGEwJERTEY
MBYGA1UECgwPRG9tYWluRG90Q29tIEFCMSowKAYDVQQLDCFEb21haW5Eb3RDb20g
RXh0ZXJuYWwgVFRQIE5ldHdvcmsxJjAkBgNVBAMMHURvbWFpbkRvdENvbSBFeHRl
cm5hbCBDQSBSb290MB4XDTE5MDEwNjIwNTgzN1oXDTIwMDEwNjIwNTgzN1owfTEL
MAkGA1UEBhMCREUxDzANBgNVBAgMBkhlc3NlbjESMBAGA1UEBwwJRnJhbmtmdXJ0
MRswGQYDVQQKDBJDb21wYW55IENBIExpbWl0ZWQxLDAqBgNVBAMMI0NvbXBhbnkg
UlNBIENlcnRpZmljYXRpb24gQXV0aG9yaXR5MIIBIjANBgkqhkiG9w0BAQEFAAOC
AQ8AMIIBCgKCAQEAoA/moPZrHp4rdJFxFTezDWa4xR9p+VAW2PYKGAcWsNy6UA7h
9Ua4w3o+YznWOKsy+LqdE37canWq+4L6F6Q+oNtygxqhccBttzTBh/P6nOOCffOI
mRZPFuLfHhlowQDLyCmbkbzIg4rSWjSzfDKOfeRQsfHf2dK876+5DAP2M3xSV1U9
7oXN+kaWCFqAokhYXLu5QWGxCK+QZeWgtkhi6b05UbhgJ+77JhIMWOwAVnTeo0GI
bNaMVI+Jpzg81riM8nsGsjSmJ0CYEaOXb3w2lgoIJDPh/e0n5XzZglNMeiQmzFLp
exaf0WxRQa8I8OJBWv4HH3Tkpbgmo7bP5r6cawIDAQABo4HyMIHvMB8GA1UdIwQY
MBaAFP9OEBEe8AnZPk4x3PMOBndYdQ3eMB0GA1UdDgQWBBRD22vglhqyVabtkH+x
1FzbBCzsETAOBgNVHQ8BAf8EBAMCAYYwDwYDVR0TAQH/BAUwAwEB/zARBgNVHSAE
CjAIMAYGBFUdIAAwRQYDVR0fBD4wPDA6oDigNoY0aHR0cDovL2NybC5kb21haW4u
Y29tL0RvbWFpbkRvdENvbUV4dGVybmFsQ0FSb290LmNybDAyBggrBgEFBQcBAQQm
MCQwIgYIKwYBBQUHMAGGFmh0dHA6Ly9vY3NwLmRvbWFpbi5jb20wDQYJKoZIhvcN
AQELBQADggEBAMCAcCb+7RzHJvNgAgH8P5KSWWeFJPVOXPllKoNFjqK6QrmijJnH
UQkoD4G8wOSey7YkfSEJe2uc7uGWxqSjvOqhpcePSUSh5kzodFDXaQicCn+2xWYS
xZpfQgXygextLMWfFu1w3ImqYtvRZjwTv+03hF6+7zUxBKLQCbm90NRDFoINHXT0
ZMf2eDCwH/FUsZs1oaerTzNCSVipki89TIiohj/3T2cM1vOtJqMCN2+ZSm2P2+gH
uKA/w3c23yMmYdjjd7yJXtrf6TZJ63d737gHKrDgercDrMyoma2OB9YiMKYziC/j
2BO356eWcUXh6yLJYIWm4wBbUkPu1ji7z/I=
-----END CERTIFICATE-----
