Certificate:
    Data:
        Version: 3 (0x2)
        Serial Number: 1 (0x1)
    Signature Algorithm: sha256WithRSAEncryption
        Issuer: C=DE, O=Domain.com Inc, OU=www.domain.com, CN=Domain.com SHA2 High Assurance Server CA
        Validity
            Not Before: Jan  4 11:06:13 2019 GMT
            Not After : Jan  4 11:06:13 2020 GMT
        Subject: C=DE, L=Frankfurt, O=Domain.com Inc, CN=ocsp.domain.com
        Subject Public Key Info:
            Public Key Algorithm: rsaEncryption
                Public-Key: (2048 bit)
                Modulus:
                    00:bb:d3:a9:f5:d3:0d:ff:8c:9c:d1:28:ad:90:cc:
                    b9:37:59:4d:8a:e8:76:2b:88:c8:00:b9:f3:a2:da:
                    62:35:8e:f9:82:3a:44:35:90:6d:f2:12:17:53:3c:
                    dc:ad:ea:82:b8:f5:0c:32:4d:40:b7:c2:17:b1:74:
                    30:bc:e2:48:2c:5f:9d:8a:16:2d:bb:45:ad:27:23:
                    96:37:3a:3f:27:73:67:0c:78:d6:0c:29:c6:1e:c3:
                    52:c8:d5:55:e1:1f:42:ba:41:9b:c9:c3:ea:50:d4:
                    b3:31:76:f1:00:e5:0c:f1:46:50:af:56:fc:6d:a0:
                    4d:6f:0e:5f:36:d1:51:33:53:54:cd:6a:e9:98:14:
                    06:69:3e:78:7e:06:d5:85:53:4a:c8:69:d3:4f:46:
                    cb:94:ab:34:8f:2e:41:6b:7d:24:fa:88:77:a2:62:
                    64:cc:ad:a8:9f:7d:12:7d:9a:a9:49:15:5f:de:27:
                    98:dd:88:a2:f1:12:79:34:be:03:61:7f:36:3b:15:
                    7d:15:5a:ce:9f:a7:74:4f:0f:9c:86:9d:e5:84:86:
                    32:f4:df:3b:28:d6:f9:49:fc:28:c9:4c:f2:54:91:
                    92:29:9a:fd:ca:eb:ef:80:e4:33:6c:95:5b:39:6f:
                    0a:a2:6e:5f:2e:f8:23:cb:c7:d3:66:b3:7f:48:58:
                    48:97
                Exponent: 65537 (0x10001)
        X509v3 extensions:
            X509v3 Authority Key Identifier: 
                keyid:C8:31:EC:62:86:DF:6D:C5:CC:8D:64:65:4E:18:67:2F:BE:48:38:3B

            OCSP No Check: 

            X509v3 Extended Key Usage: 
                OCSP Signing
            X509v3 Key Usage: critical
                Digital Signature
            X509v3 Subject Key Identifier: 
                F1:F8:C9:E1:C7:1B:2D:90:DE:C5:BA:3A:A7:A9:0E:A1:DF:82:C9:43
            X509v3 Basic Constraints: critical
                CA:FALSE
    Signature Algorithm: sha256WithRSAEncryption
         b8:47:c7:61:c0:80:c2:ac:5b:22:1b:8c:44:67:50:61:0e:0a:
         a6:3d:70:66:17:22:49:f6:a4:c4:6c:ae:68:db:2b:a6:b5:de:
         3b:47:95:0c:46:3c:c9:0e:09:84:77:db:f6:38:e6:c2:ff:08:
         1e:79:d9:ec:09:28:db:e3:05:5c:59:3f:ae:1f:67:ea:46:6e:
         03:85:f0:2f:dd:2a:fb:d3:f6:66:0e:d1:e8:62:ae:db:19:b3:
         d2:5e:8f:92:58:c4:29:38:b7:72:14:4e:ce:da:f8:73:18:b9:
         45:fb:28:b0:b3:eb:8e:04:cb:f0:45:1b:3b:41:ee:96:0f:9c:
         0a:72:3b:d6:c5:2f:76:0f:77:92:6e:82:54:35:f8:47:5a:cd:
         a0:ab:43:72:30:a8:33:6e:20:9f:30:c2:bf:f5:04:08:3f:a1:
         23:b6:d5:4a:07:a9:ba:06:56:43:3e:6f:bd:43:a3:e0:32:b0:
         f4:4e:7b:72:02:bd:45:23:70:cb:c0:99:5d:3a:7b:05:38:fc:
         57:8b:2e:d1:99:52:22:59:b6:1e:03:59:66:57:5d:3c:5a:2a:
         90:20:b0:eb:bc:a9:02:a8:71:73:fe:e7:00:0b:d6:fa:de:e8:
         6d:47:0a:c3:39:d9:57:19:87:25:d8:a9:a2:78:16:a4:43:da:
         79:d7:1d:cb
-----BEGIN CERTIFICATE-----
MIIDyTCCArGgAwIBAgIBATANBgkqhkiG9w0BAQsFADByMQswCQYDVQQGEwJERTEX
MBUGA1UECgwORG9tYWluLmNvbSBJbmMxFzAVBgNVBAsMDnd3dy5kb21haW4uY29t
MTEwLwYDVQQDDChEb21haW4uY29tIFNIQTIgSGlnaCBBc3N1cmFuY2UgU2VydmVy
IENBMB4XDTE5MDEwNDExMDYxM1oXDTIwMDEwNDExMDYxM1owVDELMAkGA1UEBhMC
REUxEjAQBgNVBAcMCUZyYW5rZnVydDEXMBUGA1UECgwORG9tYWluLmNvbSBJbmMx
GDAWBgNVBAMMD29jc3AuZG9tYWluLmNvbTCCASIwDQYJKoZIhvcNAQEBBQADggEP
ADCCAQoCggEBALvTqfXTDf+MnNEorZDMuTdZTYrodiuIyAC586LaYjWO+YI6RDWQ
bfISF1M83K3qgrj1DDJNQLfCF7F0MLziSCxfnYoWLbtFrScjljc6PydzZwx41gwp
xh7DUsjVVeEfQrpBm8nD6lDUszF28QDlDPFGUK9W/G2gTW8OXzbRUTNTVM1q6ZgU
Bmk+eH4G1YVTSshp009Gy5SrNI8uQWt9JPqId6JiZMytqJ99En2aqUkVX94nmN2I
ovESeTS+A2F/NjsVfRVazp+ndE8PnIad5YSGMvTfOyjW+Un8KMlM8lSRkima/crr
74DkM2yVWzlvCqJuXy74I8vH02azf0hYSJcCAwEAAaOBhzCBhDAfBgNVHSMEGDAW
gBTIMexiht9txcyNZGVOGGcvvkg4OzAPBgkrBgEFBQcwAQUEAgUAMBMGA1UdJQQM
MAoGCCsGAQUFBwMJMA4GA1UdDwEB/wQEAwIHgDAdBgNVHQ4EFgQU8fjJ4ccbLZDe
xbo6p6kOod+CyUMwDAYDVR0TAQH/BAIwADANBgkqhkiG9w0BAQsFAAOCAQEAuEfH
YcCAwqxbIhuMRGdQYQ4Kpj1wZhciSfakxGyuaNsrprXeO0eVDEY8yQ4JhHfb9jjm
wv8IHnnZ7Ako2+MFXFk/rh9n6kZuA4XwL90q+9P2Zg7R6GKu2xmz0l6PkljEKTi3
chROztr4cxi5RfsosLPrjgTL8EUbO0Hulg+cCnI71sUvdg93km6CVDX4R1rNoKtD
cjCoM24gnzDCv/UECD+hI7bVSgepugZWQz5vvUOj4DKw9E57cgK9RSNwy8CZXTp7
BTj8V4su0ZlSIlm2HgNZZlddPFoqkCCw67ypAqhxc/7nAAvW+t7obUcKwznZVxmH
JdipongWpEPaedcdyw==
-----END CERTIFICATE-----
