Certificate:
    Data:
        Version: 3 (0x2)
        Serial Number: 2 (0x2)
    Signature Algorithm: sha256WithRSAEncryption
        Issuer: C=DE, O=Domain.com Inc, OU=www.domain.com, CN=Domain.com SHA2 High Assurance Server CA
        Validity
            Not Before: Jan  4 11:12:18 2019 GMT
            Not After : Jan  4 11:12:18 2020 GMT
        Subject: C=US, ST=CA, L=Menlo Park, O=Domain.com, Inc., CN=www.domain.com
        Subject Public Key Info:
            Public Key Algorithm: rsaEncryption
                Public-Key: (2048 bit)
                Modulus:
                    00:da:2a:32:1c:ea:f4:3b:ef:e3:ef:3b:5a:a5:d6:
                    fd:a8:99:76:96:63:84:38:2f:2e:fc:0c:1a:8c:02:
                    61:85:9e:4d:67:d7:05:7a:de:78:5b:21:b1:fa:8b:
                    b9:f5:d2:90:0e:01:91:07:a1:25:e7:03:73:32:1c:
                    15:a1:58:58:e9:5c:09:ad:e9:bf:7b:75:03:0e:12:
                    3d:b6:ba:f6:12:2f:b4:c1:99:05:2c:af:f0:99:33:
                    5d:67:d4:66:9d:97:d1:2f:6e:20:ff:61:7f:ef:0a:
                    61:ab:f6:a4:44:63:e3:42:34:02:ec:4b:fa:8d:7c:
                    9d:dc:ef:a8:d2:aa:82:ed:d8:8c:11:df:9f:5a:96:
                    52:f7:84:ef:69:c7:ff:ec:2d:6a:ea:9b:c1:a3:14:
                    ef:f9:b7:f7:ec:3f:21:60:38:b8:14:cf:84:ec:67:
                    32:90:97:0c:0d:a7:80:76:ed:fa:a0:26:8c:f4:31:
                    e3:66:c7:9d:38:61:39:fa:08:2d:d0:a9:be:63:9a:
                    d1:9a:98:53:2e:d8:30:7f:03:46:9c:75:77:f2:53:
                    a4:41:ce:67:5c:d1:17:93:28:f4:03:04:16:d1:e3:
                    2e:ae:62:39:78:fd:b4:14:b9:e0:8a:0e:32:fe:cf:
                    17:e4:e8:98:9f:52:eb:39:6e:e2:d0:a3:23:d0:ad:
                    32:cb
                Exponent: 65537 (0x10001)
        X509v3 extensions:
            Netscape Comment: 
                OpenSSL Generated Certificate
            X509v3 Subject Key Identifier: 
                12:67:C0:A1:DC:6B:44:FC:56:EE:92:BA:33:C4:F8:50:9B:C0:23:F1
            X509v3 Authority Key Identifier: 
                keyid:C8:31:EC:62:86:DF:6D:C5:CC:8D:64:65:4E:18:67:2F:BE:48:38:3B

            X509v3 Key Usage: critical
                Digital Signature, Key Encipherment, Data Encipherment
            X509v3 Extended Key Usage: 
                TLS Web Server Authentication, TLS Web Client Authentication
            X509v3 CRL Distribution Points: 

                Full Name:
                  URI:http://ssl-crl.domain.com/crls/ssl.crl

            X509v3 Basic Constraints: critical
                CA:FALSE
            Authority Information Access: 
                OCSP - URI:http://ssl-ocsp.domain.com
                CA Issuers - URI:http://ssl-aia.domain.com/ssl.crt

    Signature Algorithm: sha256WithRSAEncryption
         30:1f:06:0c:9f:00:fe:cf:4c:74:12:62:0d:8b:b6:8a:ae:9a:
         d4:a0:63:4f:e4:2c:bf:3f:7a:20:3b:b8:55:0c:c6:1f:ee:f5:
         4a:a4:7e:82:3d:da:b3:94:27:f2:98:a6:16:78:14:f3:ad:11:
         fd:43:9b:3b:6d:34:33:23:f1:0b:cb:6f:d2:1d:57:ed:18:25:
         b1:74:37:a9:b2:83:d0:5b:fd:f5:ac:d0:ce:da:3d:d7:40:02:
         de:d7:f8:71:8a:81:f8:23:e3:cd:58:05:b2:91:69:0e:1e:6f:
         5d:16:76:07:44:85:ce:77:d2:6c:25:84:54:7f:3c:22:e9:5b:
         20:05:c3:53:b3:c8:36:90:3c:b1:9a:ce:4e:16:02:ea:ca:d7:
         c5:9d:d4:50:57:52:64:d2:d0:40:de:bc:17:ee:2a:20:75:b1:
         c2:ce:b7:84:d4:a5:7d:df:52:dc:e7:78:ab:8a:78:25:13:ee:
         f6:ca:24:fb:6c:3d:b0:a6:54:21:86:77:55:04:6a:94:9d:43:
         ce:e8:c3:4b:53:d1:55:eb:2a:cb:bd:8d:65:44:70:1b:41:ce:
         39:f8:dd:18:f7:99:0e:6c:1e:4e:88:d4:d3:0a:96:2d:8a:eb:
         54:17:a5:b0:18:3c:ca:1e:59:ba:16:fc:ef:41:9d:96:ce:ff:
         44:96:76:5d
-----BEGIN CERTIFICATE-----
MIIEoTCCA4mgAwIBAgIBAjANBgkqhkiG9w0BAQsFADByMQswCQYDVQQGEwJERTEX
MBUGA1UECgwORG9tYWluLmNvbSBJbmMxFzAVBgNVBAsMDnd3dy5kb21haW4uY29t
MTEwLwYDVQQDDChEb21haW4uY29tIFNIQTIgSGlnaCBBc3N1cmFuY2UgU2VydmVy
IENBMB4XDTE5MDEwNDExMTIxOFoXDTIwMDEwNDExMTIxOFowYzELMAkGA1UEBhMC
VVMxCzAJBgNVBAgMAkNBMRMwEQYDVQQHDApNZW5sbyBQYXJrMRkwFwYDVQQKDBBE
b21haW4uY29tLCBJbmMuMRcwFQYDVQQDDA53d3cuZG9tYWluLmNvbTCCASIwDQYJ
KoZIhvcNAQEBBQADggEPADCCAQoCggEBANoqMhzq9Dvv4+87WqXW/aiZdpZjhDgv
LvwMGowCYYWeTWfXBXreeFshsfqLufXSkA4BkQehJecDczIcFaFYWOlcCa3pv3t1
Aw4SPba69hIvtMGZBSyv8JkzXWfUZp2X0S9uIP9hf+8KYav2pERj40I0AuxL+o18
ndzvqNKqgu3YjBHfn1qWUveE72nH/+wtauqbwaMU7/m39+w/IWA4uBTPhOxnMpCX
DA2ngHbt+qAmjPQx42bHnThhOfoILdCpvmOa0ZqYUy7YMH8DRpx1d/JTpEHOZ1zR
F5Mo9AMEFtHjLq5iOXj9tBS54IoOMv7PF+TomJ9S6zlu4tCjI9CtMssCAwEAAaOC
AU8wggFLMCwGCWCGSAGG+EIBDQQfFh1PcGVuU1NMIEdlbmVyYXRlZCBDZXJ0aWZp
Y2F0ZTAdBgNVHQ4EFgQUEmfAodxrRPxW7pK6M8T4UJvAI/EwHwYDVR0jBBgwFoAU
yDHsYobfbcXMjWRlThhnL75IODswDgYDVR0PAQH/BAQDAgSwMB0GA1UdJQQWMBQG
CCsGAQUFBwMBBggrBgEFBQcDAjA3BgNVHR8EMDAuMCygKqAohiZodHRwOi8vc3Ns
LWNybC5kb21haW4uY29tL2NybHMvc3NsLmNybDAMBgNVHRMBAf8EAjAAMGUGCCsG
AQUFBwEBBFkwVzAmBggrBgEFBQcwAYYaaHR0cDovL3NzbC1vY3NwLmRvbWFpbi5j
b20wLQYIKwYBBQUHMAKGIWh0dHA6Ly9zc2wtYWlhLmRvbWFpbi5jb20vc3NsLmNy
dDANBgkqhkiG9w0BAQsFAAOCAQEAMB8GDJ8A/s9MdBJiDYu2iq6a1KBjT+Qsvz96
IDu4VQzGH+71SqR+gj3as5Qn8pimFngU860R/UObO200MyPxC8tv0h1X7RglsXQ3
qbKD0Fv99azQzto910AC3tf4cYqB+CPjzVgFspFpDh5vXRZ2B0SFznfSbCWEVH88
IulbIAXDU7PINpA8sZrOThYC6srXxZ3UUFdSZNLQQN68F+4qIHWxws63hNSlfd9S
3Od4q4p4JRPu9sok+2w9sKZUIYZ3VQRqlJ1DzujDS1PRVesqy72NZURwG0HOOfjd
GPeZDmweTojU0wqWLYrrVBelsBg8yh5Zuhb870Gdls7/RJZ2XQ==
-----END CERTIFICATE-----
