Certificate:
    Data:
        Version: 3 (0x2)
        Serial Number: 3 (0x3)
    Signature Algorithm: sha256WithRSAEncryption
        Issuer: C=DE, O=Domain.com Inc, OU=www.domain.com, CN=Domain.com SHA2 High Assurance Server CA
        Validity
            Not Before: Jan  4 20:52:01 2019 GMT
            Not After : Jan  4 20:52:01 2020 GMT
        Subject: C=US, ST=CA, L=Menlo Park, O=Domain.com, Inc., CN=www.domain.com
        Subject Public Key Info:
            Public Key Algorithm: rsaEncryption
                Public-Key: (1024 bit)
                Modulus:
                    00:be:5d:53:5c:09:90:5e:bb:72:3d:06:d3:93:6d:
                    b1:cd:c2:a3:99:b7:ab:b1:8f:b0:bc:50:b0:51:bd:
                    16:95:7f:fb:99:52:cc:c3:96:d7:2e:d2:a8:f5:47:
                    9e:d9:f2:2e:d2:43:f7:35:da:40:5b:3e:5f:33:cd:
                    9b:0c:c8:73:38:14:4f:aa:85:ce:26:b7:c9:b7:b3:
                    ab:e1:82:60:1c:17:cc:5b:ad:55:e1:10:0e:86:b3:
                    f9:a9:f6:8f:9e:cd:d5:5a:7e:a3:25:c9:f2:a8:e8:
                    dd:72:08:7f:9e:e9:65:e2:af:8d:67:a4:5a:8a:2e:
                    6f:9e:b8:81:3f:8f:de:96:2d
                Exponent: 65537 (0x10001)
        X509v3 extensions:
            X509v3 Key Usage: critical
                Digital Signature, Key Encipherment, Data Encipherment
            X509v3 CRL Distribution Points: 

                Full Name:
                  URI:http://ssl-crl.domain.com/crls/ssl.crl

            Authority Information Access: 
                OCSP - URI:http://ssl-ocsp.domain.com
                CA Issuers - URI:http://ssl-aia.domain.com/ssl.crt

            X509v3 Basic Constraints: critical
                CA:FALSE
            X509v3 Authority Key Identifier: 
                keyid:C8:31:EC:62:86:DF:6D:C5:CC:8D:64:65:4E:18:67:2F:BE:48:38:3B

            X509v3 Extended Key Usage: 
                TLS Web Server Authentication, TLS Web Client Authentication
            X509v3 Subject Key Identifier: 
                EC:81:AE:EB:B5:BC:72:FD:FE:A0:3A:5A:0D:32:6B:92:26:08:DC:6D
    Signature Algorithm: sha256WithRSAEncryption
         01:e2:c8:f4:9b:7f:6e:c3:06:db:0c:d3:fc:a7:d9:92:99:36:
         73:39:06:a1:8e:32:58:42:e1:7b:63:9b:be:9f:91:98:92:3b:
         2c:24:5a:55:04:d5:31:c9:67:ed:36:fe:ff:84:a9:d3:c8:5f:
         e2:dc:09:23:89:e4:1e:5c:1d:5a:0d:14:ec:9e:a9:ae:51:ce:
         16:aa:96:59:8f:4b:86:b0:6a:06:48:af:73:c8:27:5d:1f:af:
         74:e3:d3:91:28:40:af:f8:a4:ea:ab:0f:ca:0e:7f:5a:2c:e6:
         c1:5c:6f:17:ca:36:b5:30:25:49:8f:c5:f4:dd:84:22:5c:c2:
         38:99:ca:cd:11:ed:ad:bf:79:21:ea:11:e3:c4:6f:32:bc:fa:
         4f:5d:87:b6:41:93:c0:5e:e9:74:c2:e0:01:cd:95:94:87:40:
         98:32:ac:42:1d:d3:e2:1f:50:d1:1f:76:5f:56:6b:87:ef:aa:
         62:f5:d0:72:fe:6f:bc:df:30:fe:ee:15:f6:ab:7a:7c:13:3f:
         82:10:f1:de:b5:cd:5a:9d:6b:45:93:aa:1d:55:39:ed:c3:8a:
         0f:dc:d4:ef:78:fa:98:3a:ce:ac:0a:c0:18:3e:b9:59:03:39:
         55:64:ee:e9:31:68:d2:ef:3e:05:d2:48:34:ca:e5:f4:08:ae:
         c6:b8:dc:a8
-----BEGIN CERTIFICATE-----
MIID7zCCAtegAwIBAgIBAzANBgkqhkiG9w0BAQsFADByMQswCQYDVQQGEwJERTEX
MBUGA1UECgwORG9tYWluLmNvbSBJbmMxFzAVBgNVBAsMDnd3dy5kb21haW4uY29t
MTEwLwYDVQQDDChEb21haW4uY29tIFNIQTIgSGlnaCBBc3N1cmFuY2UgU2VydmVy
IENBMB4XDTE5MDEwNDIwNTIwMVoXDTIwMDEwNDIwNTIwMVowYzELMAkGA1UEBhMC
VVMxCzAJBgNVBAgMAkNBMRMwEQYDVQQHDApNZW5sbyBQYXJrMRkwFwYDVQQKDBBE
b21haW4uY29tLCBJbmMuMRcwFQYDVQQDDA53d3cuZG9tYWluLmNvbTCBnzANBgkq
hkiG9w0BAQEFAAOBjQAwgYkCgYEAvl1TXAmQXrtyPQbTk22xzcKjmbersY+wvFCw
Ub0WlX/7mVLMw5bXLtKo9Uee2fIu0kP3NdpAWz5fM82bDMhzOBRPqoXOJrfJt7Or
4YJgHBfMW61V4RAOhrP5qfaPns3VWn6jJcnyqOjdcgh/null4q+NZ6Raii5vnriB
P4/eli0CAwEAAaOCASEwggEdMA4GA1UdDwEB/wQEAwIEsDA3BgNVHR8EMDAuMCyg
KqAohiZodHRwOi8vc3NsLWNybC5kb21haW4uY29tL2NybHMvc3NsLmNybDBlBggr
BgEFBQcBAQRZMFcwJgYIKwYBBQUHMAGGGmh0dHA6Ly9zc2wtb2NzcC5kb21haW4u
Y29tMC0GCCsGAQUFBzAChiFodHRwOi8vc3NsLWFpYS5kb21haW4uY29tL3NzbC5j
cnQwDAYDVR0TAQH/BAIwADAfBgNVHSMEGDAWgBTIMexiht9txcyNZGVOGGcvvkg4
OzAdBgNVHSUEFjAUBggrBgEFBQcDAQYIKwYBBQUHAwIwHQYDVR0OBBYEFOyBruu1
vHL9/qA6Wg0ya5ImCNxtMA0GCSqGSIb3DQEBCwUAA4IBAQAB4sj0m39uwwbbDNP8
p9mSmTZzOQahjjJYQuF7Y5u+n5GYkjssJFpVBNUxyWftNv7/hKnTyF/i3AkjieQe
XB1aDRTsnqmuUc4WqpZZj0uGsGoGSK9zyCddH69049ORKECv+KTqqw/KDn9aLObB
XG8Xyja1MCVJj8X03YQiXMI4mcrNEe2tv3kh6hHjxG8yvPpPXYe2QZPAXul0wuAB
zZWUh0CYMqxCHdPiH1DRH3ZfVmuH76pi9dBy/m+83zD+7hX2q3p8Ez+CEPHetc1a
nWtFk6odVTntw4oP3NTvePqYOs6sCsAYPrlZAzlVZO7pMWjS7z4F0kg0yuX0CK7G
uNyo
-----END CERTIFICATE-----
