Certificate:
    Data:
        Version: 3 (0x2)
        Serial Number: 1 (0x1)
    Signature Algorithm: sha256WithRSAEncryption
        Issuer: C=DE, ST=Hessen, L=Frankfurt, O=Company CA Limited, CN=Company RSA Domain Validation Secure Server CA
        Validity
            Not Before: Jan  6 23:22:26 2019 GMT
            Not After : Jan  6 23:22:26 2020 GMT
        Subject: OU=Domain Control Validated, OU=InternalSSL, CN=www.domain.com
        Subject Public Key Info:
            Public Key Algorithm: rsaEncryption
                Public-Key: (2048 bit)
                Modulus:
                    00:c5:67:16:68:3f:44:e8:e7:8d:a0:62:ca:51:e5:
                    eb:b3:5a:50:18:22:75:d4:22:df:ce:6d:8f:8a:9f:
                    62:5f:3e:c3:eb:b1:e3:46:24:63:0f:31:84:35:88:
                    0c:57:ed:b0:3f:93:32:be:44:61:93:f0:c0:8c:9c:
                    8f:37:74:27:2c:5f:2b:23:bf:f1:7b:ab:fe:8c:0f:
                    a7:65:ab:54:cd:bc:94:7b:7f:7a:8c:0f:d4:08:c6:
                    4a:4e:5f:e2:2d:7b:4c:ca:e5:9f:d6:40:1c:26:58:
                    63:f1:a1:13:7a:5d:f0:e5:06:ee:09:f5:bc:8e:0c:
                    9c:5e:c0:4e:3d:3b:b3:26:34:ed:38:97:1d:02:e0:
                    cb:e7:aa:ee:c1:df:06:c2:b4:72:9f:f8:d0:14:2b:
                    16:02:ce:27:ea:9c:9f:e7:f1:97:34:a3:7c:5f:7e:
                    7a:b9:a0:06:75:ae:f8:af:60:6e:4d:31:a2:c0:fc:
                    68:37:0d:ca:d5:ce:4d:95:bb:03:b4:30:9e:ac:cc:
                    3c:5a:a5:bf:dc:de:27:d7:f0:6b:02:9b:e0:41:cc:
                    61:12:7c:62:90:77:92:c5:b2:d4:29:66:83:c1:bc:
                    39:36:63:c7:6f:d6:18:ec:0a:34:82:a5:b0:8c:32:
                    3e:f2:5d:18:eb:44:62:d1:3c:db:60:d5:90:1d:e4:
                    ce:9d
                Exponent: 65537 (0x10001)
        X509v3 extensions:
            X509v3 Authority Key Identifier: 
                keyid:E2:EA:BD:CE:1B:00:88:3E:B3:84:51:AE:75:04:94:8B:0B:53:08:4E

            X509v3 Subject Key Identifier: 
                31:85:B1:ED:04:30:F4:B5:00:D4:07:44:49:DF:14:CE:DA:EB:51:01
            X509v3 Key Usage: critical
                Digital Signature, Key Encipherment
            X509v3 Basic Constraints: critical
                CA:FALSE
            X509v3 Extended Key Usage: 
                TLS Web Server Authentication, TLS Web Client Authentication
            X509v3 Certificate Policies: 
                Policy: 2.23.140.1.2.1

            X509v3 CRL Distribution Points: 

                Full Name:
                  URI:http://crl.companyca.com/CompanyRSADomainValidationSecureServerCA.crl

            Authority Information Access: 
                CA Issuers - URI:http://crt.companyca.com/CompanyRSADomainValidationSecureServerCA.crt
                OCSP - URI:http://ocsp.companyca.com

            X509v3 Subject Alternative Name: 
                DNS:domain.com
    Signature Algorithm: sha256WithRSAEncryption
         57:a6:3b:5c:d2:7e:df:7f:e6:96:84:2c:6e:eb:98:39:3a:d7:
         ef:87:06:7d:40:82:74:a9:6f:e7:9a:85:f7:98:7e:ef:04:85:
         66:f2:b2:72:4c:6c:74:7e:85:2c:d4:04:d4:37:96:f6:48:e2:
         4e:ca:f2:41:0f:03:b9:ca:c7:39:30:ae:a2:c6:16:67:fd:43:
         71:b0:38:18:0f:f2:fc:ab:a1:c6:50:d5:62:b9:40:40:14:7f:
         b3:5a:55:ba:8d:1d:f0:25:8f:3a:12:46:97:4b:d7:97:a1:e9:
         b8:35:bf:31:1e:22:66:59:53:91:03:3c:b0:93:95:60:08:4f:
         60:91:df:48:00:2c:42:c4:03:89:66:d5:a6:b0:c5:05:9e:34:
         80:40:bf:b7:78:54:6a:fe:c6:2b:6e:cd:bf:e2:7e:d6:90:c1:
         c9:b7:4e:89:66:61:dd:07:1e:64:4f:c7:44:4a:2a:1d:d0:4a:
         1a:ca:6b:3d:ad:f4:36:b8:84:0f:76:f9:7e:3e:c8:b0:3e:c6:
         fa:42:cd:cc:c3:fa:ee:cc:fa:0a:fc:2e:16:14:48:cc:3e:9c:
         b6:42:58:79:1c:47:a6:a9:99:f2:c3:18:89:fb:e2:7f:f6:a3:
         0c:6a:87:b8:af:71:dd:00:e4:2d:d2:e9:47:f0:13:cf:d5:cf:
         61:28:62:8a
-----BEGIN CERTIFICATE-----
MIIE6DCCA9CgAwIBAgIBATANBgkqhkiG9w0BAQsFADCBiDELMAkGA1UEBhMCREUx
DzANBgNVBAgMBkhlc3NlbjESMBAGA1UEBwwJRnJhbmtmdXJ0MRswGQYDVQQKDBJD
b21wYW55IENBIExpbWl0ZWQxNzA1BgNVBAMMLkNvbXBhbnkgUlNBIERvbWFpbiBW
YWxpZGF0aW9uIFNlY3VyZSBTZXJ2ZXIgQ0EwHhcNMTkwMTA2MjMyMjI2WhcNMjAw
MTA2MjMyMjI2WjBSMSEwHwYDVQQLDBhEb21haW4gQ29udHJvbCBWYWxpZGF0ZWQx
FDASBgNVBAsMC0ludGVybmFsU1NMMRcwFQYDVQQDDA53d3cuZG9tYWluLmNvbTCC
ASIwDQYJKoZIhvcNAQEBBQADggEPADCCAQoCggEBAMVnFmg/ROjnjaBiylHl67Na
UBgiddQi385tj4qfYl8+w+ux40YkYw8xhDWIDFftsD+TMr5EYZPwwIycjzd0Jyxf
KyO/8Xur/owPp2WrVM28lHt/eowP1AjGSk5f4i17TMrln9ZAHCZYY/GhE3pd8OUG
7gn1vI4MnF7ATj07syY07TiXHQLgy+eq7sHfBsK0cp/40BQrFgLOJ+qcn+fxlzSj
fF9+ermgBnWu+K9gbk0xosD8aDcNytXOTZW7A7QwnqzMPFqlv9zeJ9fwawKb4EHM
YRJ8YpB3ksWy1Clmg8G8OTZjx2/WGOwKNIKlsIwyPvJdGOtEYtE822DVkB3kzp0C
AwEAAaOCAZAwggGMMB8GA1UdIwQYMBaAFOLqvc4bAIg+s4RRrnUElIsLUwhOMB0G
A1UdDgQWBBQxhbHtBDD0tQDUB0RJ3xTO2utRATAOBgNVHQ8BAf8EBAMCBaAwDAYD
VR0TAQH/BAIwADAdBgNVHSUEFjAUBggrBgEFBQcDAQYIKwYBBQUHAwIwEwYDVR0g
BAwwCjAIBgZngQwBAgEwVgYDVR0fBE8wTTBLoEmgR4ZFaHR0cDovL2NybC5jb21w
YW55Y2EuY29tL0NvbXBhbnlSU0FEb21haW5WYWxpZGF0aW9uU2VjdXJlU2VydmVy
Q0EuY3JsMIGIBggrBgEFBQcBAQR8MHowUQYIKwYBBQUHMAKGRWh0dHA6Ly9jcnQu
Y29tcGFueWNhLmNvbS9Db21wYW55UlNBRG9tYWluVmFsaWRhdGlvblNlY3VyZVNl
cnZlckNBLmNydDAlBggrBgEFBQcwAYYZaHR0cDovL29jc3AuY29tcGFueWNhLmNv
bTAVBgNVHREEDjAMggpkb21haW4uY29tMA0GCSqGSIb3DQEBCwUAA4IBAQBXpjtc
0n7ff+aWhCxu65g5OtfvhwZ9QIJ0qW/nmoX3mH7vBIVm8rJyTGx0foUs1ATUN5b2
SOJOyvJBDwO5ysc5MK6ixhZn/UNxsDgYD/L8q6HGUNViuUBAFH+zWlW6jR3wJY86
EkaXS9eXoem4Nb8xHiJmWVORAzywk5VgCE9gkd9IACxCxAOJZtWmsMUFnjSAQL+3
eFRq/sYrbs2/4n7WkMHJt06JZmHdBx5kT8dESiod0Eoayms9rfQ2uIQPdvl+Psiw
Psb6Qs3Mw/ruzPoK/C4WFEjMPpy2Qlh5HEemqZnywxiJ++J/9qMMaoe4r3HdAOQt
0ulH8BPP1c9hKGKK
-----END CERTIFICATE-----
