Certificate:
    Data:
        Version: 3 (0x2)
        Serial Number: 2 (0x2)
    Signature Algorithm: sha256WithRSAEncryption
        Issuer: C=DE, O=Domain.com Inc., OU=www.domain.com, CN=Domain.com High Assurance EV Root CA
        Validity
            Not Before: Jan  4 10:57:10 2019 GMT
            Not After : Jan  4 10:57:10 2020 GMT
        Subject: C=DE, L=Frankfurt, O=Domain.com Inc, CN=ocsp.domain.com
        Subject Public Key Info:
            Public Key Algorithm: rsaEncryption
                Public-Key: (2048 bit)
                Modulus:
                    00:c8:42:31:f4:d7:37:32:a7:8a:35:35:6a:8f:a4:
                    7e:c9:a6:d6:80:8e:36:6e:24:98:6d:34:6a:0a:b3:
                    9e:84:dd:d8:b8:18:58:4a:55:c2:1a:74:7c:71:fe:
                    d7:fa:b1:66:fb:7b:e8:2a:0b:ed:c9:7e:62:b4:f4:
                    8b:c0:5d:1f:84:74:cc:11:99:ec:74:7b:cc:5d:6d:
                    63:16:c0:b2:10:e5:f3:0a:1f:2d:d2:86:4b:70:a7:
                    4a:0d:fa:72:96:03:06:10:7b:8a:fc:5c:1a:d4:10:
                    7a:38:42:b6:93:47:a7:15:40:4f:f8:da:e5:50:af:
                    73:db:fc:23:7c:7d:40:de:bf:81:3d:29:a6:03:db:
                    00:84:84:1f:f7:42:31:bd:09:ba:11:74:61:a4:e0:
                    18:4c:f1:22:7d:1e:1b:25:7c:8c:ad:94:81:d6:dc:
                    fa:d9:f0:d4:61:a9:b5:14:ad:41:67:d9:0c:78:0c:
                    cd:da:1f:18:1b:fd:05:4c:9b:eb:60:a7:eb:f2:df:
                    91:b6:32:f0:2e:f2:0a:1d:63:7a:f2:18:8c:2a:0c:
                    fb:4d:48:83:36:fc:2a:74:57:c9:9f:dc:d6:42:1d:
                    fa:44:3d:0e:71:0c:e1:d6:45:94:33:35:d7:2e:74:
                    61:28:70:85:e3:e7:c0:ce:b3:dc:95:da:91:32:0d:
                    7d:5b
                Exponent: 65537 (0x10001)
        X509v3 extensions:
            X509v3 Authority Key Identifier: 
                keyid:73:2E:84:F3:4C:AB:CB:43:55:7C:38:E5:38:CB:3B:DC:9C:18:2B:83

            OCSP No Check: 

            X509v3 Extended Key Usage: 
                OCSP Signing
            X509v3 Key Usage: critical
                Digital Signature
            X509v3 Subject Key Identifier: 
                07:D3:61:1C:2B:6D:14:40:1B:55:58:2E:A7:86:CA:71:1D:FA:48:AC
            X509v3 Basic Constraints: critical
                CA:FALSE
    Signature Algorithm: sha256WithRSAEncryption
         53:c9:61:10:ca:e8:b6:08:ae:ab:f8:12:d0:a3:93:e3:17:36:
         96:a5:f8:45:27:78:ab:17:b3:9d:6e:a6:be:57:07:df:7d:12:
         9b:b8:99:af:75:b3:92:3d:28:93:e3:c5:06:a4:fe:80:7c:b3:
         ba:98:30:ca:c1:3a:49:db:e6:92:3c:85:9a:b9:57:49:e1:f7:
         4e:49:b8:2f:ab:fc:a2:d4:49:27:da:f4:b1:e8:af:73:1e:2c:
         16:4d:a4:6b:9b:c3:63:5d:ab:59:b6:a2:83:d3:3f:f5:2a:6d:
         f8:60:ef:d5:ed:32:45:ef:77:22:64:d0:bf:c7:02:b8:bd:8c:
         ed:c7:8d:80:87:a0:e8:60:c2:81:db:7f:aa:32:2b:cf:55:8e:
         61:7d:99:01:8b:1a:35:10:d0:82:dd:0e:3c:76:c7:b1:b3:4d:
         bf:ac:b6:37:ca:e5:24:5e:e5:f2:52:15:ee:3a:d0:4f:ad:be:
         41:58:24:19:ea:ce:c4:0b:6e:6e:8c:f3:4f:f8:ed:4f:3a:76:
         d9:48:99:48:3c:4c:36:e7:0d:36:f5:76:3e:84:93:91:69:6f:
         54:56:c7:8a:e0:66:0f:48:6c:fc:b4:0a:26:e9:1a:c5:b0:88:
         52:a2:4d:a6:9b:02:52:aa:cc:05:1c:c4:85:16:1e:97:46:ca:
         a1:41:f9:1f
-----BEGIN CERTIFICATE-----
MIIDxjCCAq6gAwIBAgIBAjANBgkqhkiG9w0BAQsFADBvMQswCQYDVQQGEwJERTEY
MBYGA1UECgwPRG9tYWluLmNvbSBJbmMuMRcwFQYDVQQLDA53d3cuZG9tYWluLmNv
bTEtMCsGA1UEAwwkRG9tYWluLmNvbSBIaWdoIEFzc3VyYW5jZSBFViBSb290IENB
MB4XDTE5MDEwNDEwNTcxMFoXDTIwMDEwNDEwNTcxMFowVDELMAkGA1UEBhMCREUx
EjAQBgNVBAcMCUZyYW5rZnVydDEXMBUGA1UECgwORG9tYWluLmNvbSBJbmMxGDAW
BgNVBAMMD29jc3AuZG9tYWluLmNvbTCCASIwDQYJKoZIhvcNAQEBBQADggEPADCC
AQoCggEBAMhCMfTXNzKnijU1ao+kfsmm1oCONm4kmG00agqznoTd2LgYWEpVwhp0
fHH+1/qxZvt76CoL7cl+YrT0i8BdH4R0zBGZ7HR7zF1tYxbAshDl8wofLdKGS3Cn
Sg36cpYDBhB7ivxcGtQQejhCtpNHpxVAT/ja5VCvc9v8I3x9QN6/gT0ppgPbAISE
H/dCMb0JuhF0YaTgGEzxIn0eGyV8jK2Ugdbc+tnw1GGptRStQWfZDHgMzdofGBv9
BUyb62Cn6/LfkbYy8C7yCh1jevIYjCoM+01Igzb8KnRXyZ/c1kId+kQ9DnEM4dZF
lDM11y50YShwhePnwM6z3JXakTINfVsCAwEAAaOBhzCBhDAfBgNVHSMEGDAWgBRz
LoTzTKvLQ1V8OOU4yzvcnBgrgzAPBgkrBgEFBQcwAQUEAgUAMBMGA1UdJQQMMAoG
CCsGAQUFBwMJMA4GA1UdDwEB/wQEAwIHgDAdBgNVHQ4EFgQUB9NhHCttFEAbVVgu
p4bKcR36SKwwDAYDVR0TAQH/BAIwADANBgkqhkiG9w0BAQsFAAOCAQEAU8lhEMro
tgiuq/gS0KOT4xc2lqX4RSd4qxeznW6mvlcH330Sm7iZr3Wzkj0ok+PFBqT+gHyz
upgwysE6SdvmkjyFmrlXSeH3Tkm4L6v8otRJJ9r0seivcx4sFk2ka5vDY12rWbai
g9M/9Spt+GDv1e0yRe93ImTQv8cCuL2M7ceNgIeg6GDCgdt/qjIrz1WOYX2ZAYsa
NRDQgt0OPHbHsbNNv6y2N8rlJF7l8lIV7jrQT62+QVgkGerOxAtubozzT/jtTzp2
2UiZSDxMNucNNvV2PoSTkWlvVFbHiuBmD0hs/LQKJukaxbCIUqJNppsCUqrMBRzE
hRYel0bKoUH5Hw==
-----END CERTIFICATE-----
