Certificate:
    Data:
        Version: 3 (0x2)
        Serial Number: 4 (0x4)
    Signature Algorithm: sha256WithRSAEncryption
        Issuer: C=DE, O=Domain.com Inc, OU=www.domain.com, CN=Domain.com SHA2 High Assurance Server CA
        Validity
            Not Before: Jan  4 20:52:32 2019 GMT
            Not After : Jan  4 20:52:32 2020 GMT
        Subject: C=US, ST=CA, L=Menlo Park, O=Domain.com, Inc., CN=www.domain.com
        Subject Public Key Info:
            Public Key Algorithm: rsaEncryption
                Public-Key: (2048 bit)
                Modulus:
                    00:c2:4d:a1:ac:41:34:09:de:cb:a9:be:d1:c1:95:
                    e1:e4:3d:bc:79:4d:50:56:6f:a5:dc:6e:59:c0:cf:
                    54:c3:13:a3:91:67:ba:2c:d9:0a:6a:b6:dc:57:93:
                    82:e2:72:74:4f:29:8d:44:08:cd:c6:38:ac:4c:dd:
                    18:fd:20:98:50:b6:6b:67:31:69:2c:1a:bd:24:58:
                    81:f1:74:6d:70:bb:83:a1:7c:d0:9d:29:a5:af:d8:
                    41:62:ed:1a:e5:d7:32:62:d4:87:68:c4:57:fb:bd:
                    2d:96:ec:de:b2:6d:a5:b8:51:06:30:57:79:12:27:
                    5d:a2:15:4d:c2:25:81:84:98:04:78:ec:c0:ed:00:
                    09:66:e0:7e:c3:ff:86:26:31:09:c3:fb:26:4c:ca:
                    19:5d:08:98:03:ea:02:92:3c:bc:1e:a9:da:eb:2a:
                    ca:76:c7:5b:df:89:7d:4a:fd:ea:1b:a4:0f:45:92:
                    29:3e:62:35:11:93:e7:32:a4:8b:ec:53:9d:50:0d:
                    e5:b7:32:b4:10:18:2e:27:1a:b0:cd:41:a7:5f:ca:
                    9d:49:b7:0e:94:3d:36:f8:87:75:62:8f:09:a4:33:
                    a1:6d:92:27:18:59:52:02:5f:77:37:77:a2:55:3a:
                    b6:20:54:ce:c5:c0:b1:74:cf:e6:c4:84:96:83:33:
                    3f:29
                Exponent: 65537 (0x10001)
        X509v3 extensions:
            X509v3 Key Usage: critical
                Digital Signature, Key Encipherment, Data Encipherment
            X509v3 CRL Distribution Points: 

                Full Name:
                  URI:http://ssl-crl.domain.com/crls/ssl.crl

            Authority Information Access: 
                OCSP - URI:http://ssl-ocsp.domain.com
                CA Issuers - URI:http://ssl-aia.domain.com/ssl.crt

            X509v3 Basic Constraints: critical
                CA:FALSE
            X509v3 Authority Key Identifier: 
                keyid:C8:31:EC:62:86:DF:6D:C5:CC:8D:64:65:4E:18:67:2F:BE:48:38:3B

            X509v3 Extended Key Usage: 
                TLS Web Server Authentication, TLS Web Client Authentication
            X509v3 Subject Key Identifier: 
                F8:B1:57:14:8D:C1:32:2C:3F:6C:DF:62:CD:6F:61:6A:71:CE:2C:41
    Signature Algorithm: sha256WithRSAEncryption
         b6:05:68:29:99:32:cf:39:cb:e4:86:d4:fd:75:30:64:b7:d5:
         88:8c:8d:c3:a7:18:64:9a:41:fa:57:64:fb:75:75:03:d7:ea:
         6e:bf:2e:a4:7c:e8:2b:7b:2b:dc:cd:01:36:1c:84:64:a5:2e:
         19:84:f2:7a:d8:78:4b:5e:2f:80:07:64:b1:33:8e:91:f5:b9:
         32:81:fd:f2:b7:98:e8:1e:0f:56:a6:f2:53:24:97:be:72:cc:
         68:02:a2:f8:ea:f0:c6:64:5b:df:c4:77:63:03:bd:4b:9e:07:
         20:f3:20:b7:41:32:0f:4d:3a:c3:d2:ff:97:92:43:ba:c1:d8:
         16:07:22:e9:0c:68:c1:79:0b:cd:57:e5:7c:93:7d:27:f3:fb:
         17:c8:f6:9c:49:81:db:6e:42:96:c0:50:7e:b9:55:9f:e8:29:
         72:05:81:08:59:aa:4a:7c:0a:25:d7:4e:33:53:e3:96:0e:2f:
         d8:b7:fe:4d:27:01:c1:3d:b5:98:c4:ca:9d:51:fa:e4:b1:f4:
         10:8e:75:1f:af:82:7e:3a:99:4c:c7:6b:06:3c:3a:30:e8:16:
         cb:fd:c8:a8:80:7f:7a:b6:b7:7c:83:3e:4c:52:bf:cd:ad:76:
         99:54:4b:10:c6:fd:45:2d:89:23:2e:f2:59:62:16:ae:bf:c5:
         1d:ec:b2:9b
-----BEGIN CERTIFICATE-----
MIIEczCCA1ugAwIBAgIBBDANBgkqhkiG9w0BAQsFADByMQswCQYDVQQGEwJERTEX
MBUGA1UECgwORG9tYWluLmNvbSBJbmMxFzAVBgNVBAsMDnd3dy5kb21haW4uY29t
MTEwLwYDVQQDDChEb21haW4uY29tIFNIQTIgSGlnaCBBc3N1cmFuY2UgU2VydmVy
IENBMB4XDTE5MDEwNDIwNTIzMloXDTIwMDEwNDIwNTIzMlowYzELMAkGA1UEBhMC
VVMxCzAJBgNVBAgMAkNBMRMwEQYDVQQHDApNZW5sbyBQYXJrMRkwFwYDVQQKDBBE
b21haW4uY29tLCBJbmMuMRcwFQYDVQQDDA53d3cuZG9tYWluLmNvbTCCASIwDQYJ
KoZIhvcNAQEBBQADggEPADCCAQoCggEBAMJNoaxBNAney6m+0cGV4eQ9vHlNUFZv
pdxuWcDPVMMTo5FnuizZCmq23FeTguJydE8pjUQIzcY4rEzdGP0gmFC2a2cxaSwa
vSRYgfF0bXC7g6F80J0ppa/YQWLtGuXXMmLUh2jEV/u9LZbs3rJtpbhRBjBXeRIn
XaIVTcIlgYSYBHjswO0ACWbgfsP/hiYxCcP7JkzKGV0ImAPqApI8vB6p2usqynbH
W9+JfUr96hukD0WSKT5iNRGT5zKki+xTnVAN5bcytBAYLicasM1Bp1/KnUm3DpQ9
NviHdWKPCaQzoW2SJxhZUgJfdzd3olU6tiBUzsXAsXTP5sSEloMzPykCAwEAAaOC
ASEwggEdMA4GA1UdDwEB/wQEAwIEsDA3BgNVHR8EMDAuMCygKqAohiZodHRwOi8v
c3NsLWNybC5kb21haW4uY29tL2NybHMvc3NsLmNybDBlBggrBgEFBQcBAQRZMFcw
JgYIKwYBBQUHMAGGGmh0dHA6Ly9zc2wtb2NzcC5kb21haW4uY29tMC0GCCsGAQUF
BzAChiFodHRwOi8vc3NsLWFpYS5kb21haW4uY29tL3NzbC5jcnQwDAYDVR0TAQH/
BAIwADAfBgNVHSMEGDAWgBTIMexiht9txcyNZGVOGGcvvkg4OzAdBgNVHSUEFjAU
BggrBgEFBQcDAQYIKwYBBQUHAwIwHQYDVR0OBBYEFPixVxSNwTIsP2zfYs1vYWpx
zixBMA0GCSqGSIb3DQEBCwUAA4IBAQC2BWgpmTLPOcvkhtT9dTBkt9WIjI3Dpxhk
mkH6V2T7dXUD1+puvy6kfOgreyvczQE2HIRkpS4ZhPJ62HhLXi+AB2SxM46R9bky
gf3yt5joHg9WpvJTJJe+csxoAqL46vDGZFvfxHdjA71Lngcg8yC3QTIPTTrD0v+X
kkO6wdgWByLpDGjBeQvNV+V8k30n8/sXyPacSYHbbkKWwFB+uVWf6ClyBYEIWapK
fAol104zU+OWDi/Yt/5NJwHBPbWYxMqdUfrksfQQjnUfr4J+OplMx2sGPDow6BbL
/ciogH96trd8gz5MUr/NrXaZVEsQxv1FLYkjLvJZYhauv8Ud7LKb
-----END CERTIFICATE-----
