Certificate:
    Data:
        Version: 3 (0x2)
        Serial Number: 1 (0x1)
    Signature Algorithm: sha256WithRSAEncryption
        Issuer: C=DE, ST=Hessen, L=Frankfurt, O=Company CA Limited, CN=Company RSA Certification Authority
        Validity
            Not Before: Jan  6 21:43:51 2019 GMT
            Not After : Jan  6 21:43:51 2020 GMT
        Subject: C=DE, ST=Hessen, L=Frankfurt, O=Company CA Limited, CN=Company RSA Domain Validation Secure Server CA
        Subject Public Key Info:
            Public Key Algorithm: rsaEncryption
                Public-Key: (2048 bit)
                Modulus:
                    00:b5:29:ba:19:98:ea:c8:0f:43:55:38:1c:fa:d8:
                    3a:a1:01:61:4c:f6:72:d0:18:64:6b:77:3f:dd:48:
                    ae:a1:65:6a:47:bd:a6:a6:c4:c2:1d:94:62:85:57:
                    1b:fd:34:d4:61:86:ce:a2:09:e4:8f:77:5e:c4:36:
                    07:19:2b:58:c4:9b:83:5e:ed:56:66:d9:01:cb:88:
                    c7:77:21:75:ea:c1:ac:bc:f1:e3:2b:22:7f:53:35:
                    15:7b:49:66:20:ba:c8:27:2c:6c:b7:0f:88:76:cf:
                    78:ca:e9:24:9c:4a:e7:8d:e2:ea:0e:cd:5e:aa:bd:
                    c1:ca:18:89:c5:81:30:92:39:e1:5a:1f:e7:47:d6:
                    22:ac:d0:fe:89:2f:24:4d:52:d2:90:7f:66:54:c3:
                    be:f4:46:f4:19:95:2d:e0:19:54:86:88:15:3d:b6:
                    a8:2b:2d:6b:bd:f9:0b:55:68:dd:05:60:d8:f0:0b:
                    ba:d4:5c:a1:8e:7d:2c:f8:91:d7:1e:de:13:b1:7c:
                    b0:d1:58:93:a5:50:d4:6c:3c:d5:b6:ec:8c:2c:ed:
                    c5:7f:b9:52:cb:b1:b1:ab:6e:3d:51:53:a9:f5:93:
                    2b:7f:b1:75:8d:8c:42:f9:f2:be:83:7d:02:bc:42:
                    1d:c5:2a:ff:04:54:dc:bd:b3:f0:e6:43:71:3e:5b:
                    c0:cf
                Exponent: 65537 (0x10001)
        X509v3 extensions:
            X509v3 Authority Key Identifier: 
                keyid:43:DB:6B:E0:96:1A:B2:55:A6:ED:90:7F:B1:D4:5C:DB:04:2C:EC:11

            X509v3 Subject Key Identifier: 
                E2:EA:BD:CE:1B:00:88:3E:B3:84:51:AE:75:04:94:8B:0B:53:08:4E
            X509v3 Key Usage: critical
                Digital Signature, Certificate Sign, CRL Sign
            X509v3 Basic Constraints: critical
                CA:TRUE, pathlen:0
            X509v3 Extended Key Usage: 
                TLS Web Server Authentication, TLS Web Client Authentication
            X509v3 Certificate Policies: 
                Policy: X509v3 Any Policy
                Policy: 2.23.140.1.2.1

            X509v3 CRL Distribution Points: 

                Full Name:
                  URI:http://crl.companyca.com/CompanyRSACertificationAuthority.crl

            Authority Information Access: 
                CA Issuers - URI:http://crt.companyca.com/CompanyRSADomainDotComCA.crt
                OCSP - URI:http://ocsp.companyca.com

    Signature Algorithm: sha256WithRSAEncryption
         93:35:c5:21:8a:30:b1:4c:b8:8a:3b:81:23:59:e7:02:f7:93:
         55:00:76:18:8d:63:1d:f5:72:7a:c2:2f:be:0f:dd:73:1a:87:
         3f:9e:bf:4f:74:e9:11:1c:a2:fc:35:65:46:9b:8b:bb:0d:c2:
         a8:5c:cc:12:da:65:e7:fc:e8:bd:ff:94:33:c6:69:6b:46:94:
         71:91:19:89:9c:38:a4:87:af:84:7c:c5:9d:83:df:2a:38:0e:
         17:0a:41:0d:2a:ef:c3:24:bf:e3:7a:b3:ff:f8:f9:72:d1:f3:
         42:37:50:3b:44:a4:6e:56:ce:a9:ec:10:07:e7:98:9a:ca:8b:
         66:67:b6:81:4d:d9:e9:79:6d:f7:37:cc:11:6c:d2:d5:61:43:
         ef:3c:f7:31:48:eb:cb:f6:49:70:be:e3:7f:4d:7f:74:34:03:
         2c:05:81:7f:07:d6:7b:f1:f0:a1:75:e5:e7:6a:8e:06:03:7d:
         96:9c:f1:f7:2b:99:45:61:bb:00:e2:e1:0d:8e:2b:b3:85:79:
         b7:b5:1a:30:cd:34:58:ba:7e:8b:4c:e8:34:48:a3:d3:2c:ab:
         27:21:af:27:58:cf:33:ba:2e:d2:1e:b4:fc:e7:78:b6:60:7f:
         04:42:15:04:42:c8:e7:4b:a9:42:22:61:50:54:8d:28:c4:6c:
         77:12:7d:b6
-----BEGIN CERTIFICATE-----
MIIE8TCCA9mgAwIBAgIBATANBgkqhkiG9w0BAQsFADB9MQswCQYDVQQGEwJERTEP
MA0GA1UECAwGSGVzc2VuMRIwEAYDVQQHDAlGcmFua2Z1cnQxGzAZBgNVBAoMEkNv
bXBhbnkgQ0EgTGltaXRlZDEsMCoGA1UEAwwjQ29tcGFueSBSU0EgQ2VydGlmaWNh
dGlvbiBBdXRob3JpdHkwHhcNMTkwMTA2MjE0MzUxWhcNMjAwMTA2MjE0MzUxWjCB
iDELMAkGA1UEBhMCREUxDzANBgNVBAgMBkhlc3NlbjESMBAGA1UEBwwJRnJhbmtm
dXJ0MRswGQYDVQQKDBJDb21wYW55IENBIExpbWl0ZWQxNzA1BgNVBAMMLkNvbXBh
bnkgUlNBIERvbWFpbiBWYWxpZGF0aW9uIFNlY3VyZSBTZXJ2ZXIgQ0EwggEiMA0G
CSqGSIb3DQEBAQUAA4IBDwAwggEKAoIBAQC1KboZmOrID0NVOBz62DqhAWFM9nLQ
GGRrdz/dSK6hZWpHvaamxMIdlGKFVxv9NNRhhs6iCeSPd17ENgcZK1jEm4Ne7VZm
2QHLiMd3IXXqway88eMrIn9TNRV7SWYgusgnLGy3D4h2z3jK6SScSueN4uoOzV6q
vcHKGInFgTCSOeFaH+dH1iKs0P6JLyRNUtKQf2ZUw770RvQZlS3gGVSGiBU9tqgr
LWu9+QtVaN0FYNjwC7rUXKGOfSz4kdce3hOxfLDRWJOlUNRsPNW27Iws7cV/uVLL
sbGrbj1RU6n1kyt/sXWNjEL58r6DfQK8Qh3FKv8EVNy9s/DmQ3E+W8DPAgMBAAGj
ggFuMIIBajAfBgNVHSMEGDAWgBRD22vglhqyVabtkH+x1FzbBCzsETAdBgNVHQ4E
FgQU4uq9zhsAiD6zhFGudQSUiwtTCE4wDgYDVR0PAQH/BAQDAgGGMBIGA1UdEwEB
/wQIMAYBAf8CAQAwHQYDVR0lBBYwFAYIKwYBBQUHAwEGCCsGAQUFBwMCMBsGA1Ud
IAQUMBIwBgYEVR0gADAIBgZngQwBAgEwTgYDVR0fBEcwRTBDoEGgP4Y9aHR0cDov
L2NybC5jb21wYW55Y2EuY29tL0NvbXBhbnlSU0FDZXJ0aWZpY2F0aW9uQXV0aG9y
aXR5LmNybDB4BggrBgEFBQcBAQRsMGowQQYIKwYBBQUHMAKGNWh0dHA6Ly9jcnQu
Y29tcGFueWNhLmNvbS9Db21wYW55UlNBRG9tYWluRG90Q29tQ0EuY3J0MCUGCCsG
AQUFBzABhhlodHRwOi8vb2NzcC5jb21wYW55Y2EuY29tMA0GCSqGSIb3DQEBCwUA
A4IBAQCTNcUhijCxTLiKO4EjWecC95NVAHYYjWMd9XJ6wi++D91zGoc/nr9PdOkR
HKL8NWVGm4u7DcKoXMwS2mXn/Oi9/5QzxmlrRpRxkRmJnDikh6+EfMWdg98qOA4X
CkENKu/DJL/jerP/+Ply0fNCN1A7RKRuVs6p7BAH55iayotmZ7aBTdnpeW33N8wR
bNLVYUPvPPcxSOvL9klwvuN/TX90NAMsBYF/B9Z78fChdeXnao4GA32WnPH3K5lF
YbsA4uENjiuzhXm3tRowzTRYun6LTOg0SKPTLKsnIa8nWM8zui7SHrT853i2YH8E
QhUEQsjnS6lCImFQVI0oxGx3En22
-----END CERTIFICATE-----
