Certificate:
    Data:
        Version: 3 (0x2)
        Serial Number: 2 (0x2)
    Signature Algorithm: sha256WithRSAEncryption
        Issuer: C=DE, ST=Hessen, L=Frankfurt, O=Company CA Limited, CN=Company RSA Domain Validation Secure Server CA
        Validity
            Not Before: Jan  7 00:25:42 2019 GMT
            Not After : Jan  7 00:25:42 2020 GMT
        Subject: OU=Domain Control Validated, OU=InternalSSL, CN=*.domain.com
        Subject Public Key Info:
            Public Key Algorithm: rsaEncryption
                Public-Key: (2048 bit)
                Modulus:
                    00:c2:4d:a1:ac:41:34:09:de:cb:a9:be:d1:c1:95:
                    e1:e4:3d:bc:79:4d:50:56:6f:a5:dc:6e:59:c0:cf:
                    54:c3:13:a3:91:67:ba:2c:d9:0a:6a:b6:dc:57:93:
                    82:e2:72:74:4f:29:8d:44:08:cd:c6:38:ac:4c:dd:
                    18:fd:20:98:50:b6:6b:67:31:69:2c:1a:bd:24:58:
                    81:f1:74:6d:70:bb:83:a1:7c:d0:9d:29:a5:af:d8:
                    41:62:ed:1a:e5:d7:32:62:d4:87:68:c4:57:fb:bd:
                    2d:96:ec:de:b2:6d:a5:b8:51:06:30:57:79:12:27:
                    5d:a2:15:4d:c2:25:81:84:98:04:78:ec:c0:ed:00:
                    09:66:e0:7e:c3:ff:86:26:31:09:c3:fb:26:4c:ca:
                    19:5d:08:98:03:ea:02:92:3c:bc:1e:a9:da:eb:2a:
                    ca:76:c7:5b:df:89:7d:4a:fd:ea:1b:a4:0f:45:92:
                    29:3e:62:35:11:93:e7:32:a4:8b:ec:53:9d:50:0d:
                    e5:b7:32:b4:10:18:2e:27:1a:b0:cd:41:a7:5f:ca:
                    9d:49:b7:0e:94:3d:36:f8:87:75:62:8f:09:a4:33:
                    a1:6d:92:27:18:59:52:02:5f:77:37:77:a2:55:3a:
                    b6:20:54:ce:c5:c0:b1:74:cf:e6:c4:84:96:83:33:
                    3f:29
                Exponent: 65537 (0x10001)
        X509v3 extensions:
            X509v3 Authority Key Identifier: 
                keyid:E2:EA:BD:CE:1B:00:88:3E:B3:84:51:AE:75:04:94:8B:0B:53:08:4E

            X509v3 Subject Key Identifier: 
                F8:B1:57:14:8D:C1:32:2C:3F:6C:DF:62:CD:6F:61:6A:71:CE:2C:41
            X509v3 Key Usage: critical
                Digital Signature, Key Encipherment
            X509v3 Basic Constraints: critical
                CA:FALSE
            X509v3 Extended Key Usage: 
                TLS Web Server Authentication, TLS Web Client Authentication
            X509v3 Certificate Policies: 
                Policy: 2.23.140.1.2.1

            X509v3 CRL Distribution Points: 

                Full Name:
                  URI:http://crl.companyca.com/CompanyRSADomainValidationSecureServerCA.crl

            Authority Information Access: 
                CA Issuers - URI:http://crt.companyca.com/CompanyRSADomainValidationSecureServerCA.crt
                OCSP - URI:http://ocsp.companyca.com

            X509v3 Subject Alternative Name: 
                DNS:domain.com, DNS:*.domain.com, DNS:www.home.domain.com, DNS:mail.home.domain.com, DNS:dns.home.domain.com
    Signature Algorithm: sha256WithRSAEncryption
         63:a0:9a:ae:2b:40:9e:8f:fc:82:2d:93:d5:ec:4b:2c:0b:cc:
         9b:c9:97:2f:d5:33:48:b4:0d:1c:23:30:72:87:69:42:0a:fc:
         66:b5:59:d2:06:92:b0:f7:5e:9d:ae:22:97:40:09:62:26:35:
         ca:17:d2:c7:07:23:c9:d1:fc:66:3b:59:2a:88:e1:b9:c8:a1:
         01:9b:3b:e6:d1:8c:ea:4c:0d:ff:a2:be:91:59:51:50:74:c5:
         e7:e4:0f:d3:b8:58:08:f5:15:13:ac:f6:b5:5a:bc:75:77:f6:
         87:88:b0:7c:7b:50:7a:a2:07:f1:c1:20:b3:34:06:03:b3:c0:
         2c:eb:46:a6:4b:d6:f7:6a:92:4d:aa:4a:b1:77:20:fc:85:71:
         0d:16:21:f6:31:65:c8:d2:d5:f5:98:1b:0d:8c:d9:9c:36:6d:
         dd:f5:61:06:a0:51:65:71:41:8a:47:cf:0f:de:b4:ec:ef:cd:
         f0:18:47:b1:96:1c:b6:eb:19:ca:17:6b:43:12:34:c8:b1:07:
         25:2b:6e:35:5c:ae:a9:24:5d:99:8f:f6:93:fd:d3:19:a1:51:
         27:70:d3:f2:ed:20:bc:a7:0a:5d:93:58:f9:70:1a:48:51:80:
         9d:01:c3:0c:4e:51:ae:16:f6:ba:17:5e:e1:0a:77:43:38:96:
         43:0e:ae:a8
-----BEGIN CERTIFICATE-----
MIIFNDCCBBygAwIBAgIBAjANBgkqhkiG9w0BAQsFADCBiDELMAkGA1UEBhMCREUx
DzANBgNVBAgMBkhlc3NlbjESMBAGA1UEBwwJRnJhbmtmdXJ0MRswGQYDVQQKDBJD
b21wYW55IENBIExpbWl0ZWQxNzA1BgNVBAMMLkNvbXBhbnkgUlNBIERvbWFpbiBW
YWxpZGF0aW9uIFNlY3VyZSBTZXJ2ZXIgQ0EwHhcNMTkwMTA3MDAyNTQyWhcNMjAw
MTA3MDAyNTQyWjBQMSEwHwYDVQQLDBhEb21haW4gQ29udHJvbCBWYWxpZGF0ZWQx
FDASBgNVBAsMC0ludGVybmFsU1NMMRUwEwYDVQQDDAwqLmRvbWFpbi5jb20wggEi
MA0GCSqGSIb3DQEBAQUAA4IBDwAwggEKAoIBAQDCTaGsQTQJ3supvtHBleHkPbx5
TVBWb6XcblnAz1TDE6ORZ7os2QpqttxXk4LicnRPKY1ECM3GOKxM3Rj9IJhQtmtn
MWksGr0kWIHxdG1wu4OhfNCdKaWv2EFi7Rrl1zJi1IdoxFf7vS2W7N6ybaW4UQYw
V3kSJ12iFU3CJYGEmAR47MDtAAlm4H7D/4YmMQnD+yZMyhldCJgD6gKSPLweqdrr
Ksp2x1vfiX1K/eobpA9Fkik+YjURk+cypIvsU51QDeW3MrQQGC4nGrDNQadfyp1J
tw6UPTb4h3VijwmkM6FtkicYWVICX3c3d6JVOrYgVM7FwLF0z+bEhJaDMz8pAgMB
AAGjggHeMIIB2jAfBgNVHSMEGDAWgBTi6r3OGwCIPrOEUa51BJSLC1MITjAdBgNV
HQ4EFgQU+LFXFI3BMiw/bN9izW9hanHOLEEwDgYDVR0PAQH/BAQDAgWgMAwGA1Ud
EwEB/wQCMAAwHQYDVR0lBBYwFAYIKwYBBQUHAwEGCCsGAQUFBwMCMBMGA1UdIAQM
MAowCAYGZ4EMAQIBMFYGA1UdHwRPME0wS6BJoEeGRWh0dHA6Ly9jcmwuY29tcGFu
eWNhLmNvbS9Db21wYW55UlNBRG9tYWluVmFsaWRhdGlvblNlY3VyZVNlcnZlckNB
LmNybDCBiAYIKwYBBQUHAQEEfDB6MFEGCCsGAQUFBzAChkVodHRwOi8vY3J0LmNv
bXBhbnljYS5jb20vQ29tcGFueVJTQURvbWFpblZhbGlkYXRpb25TZWN1cmVTZXJ2
ZXJDQS5jcnQwJQYIKwYBBQUHMAGGGWh0dHA6Ly9vY3NwLmNvbXBhbnljYS5jb20w
YwYDVR0RBFwwWoIKZG9tYWluLmNvbYIMKi5kb21haW4uY29tghN3d3cuaG9tZS5k
b21haW4uY29tghRtYWlsLmhvbWUuZG9tYWluLmNvbYITZG5zLmhvbWUuZG9tYWlu
LmNvbTANBgkqhkiG9w0BAQsFAAOCAQEAY6CaritAno/8gi2T1exLLAvMm8mXL9Uz
SLQNHCMwcodpQgr8ZrVZ0gaSsPdena4il0AJYiY1yhfSxwcjydH8ZjtZKojhucih
AZs75tGM6kwN/6K+kVlRUHTF5+QP07hYCPUVE6z2tVq8dXf2h4iwfHtQeqIH8cEg
szQGA7PALOtGpkvW92qSTapKsXcg/IVxDRYh9jFlyNLV9ZgbDYzZnDZt3fVhBqBR
ZXFBikfPD9607O/N8BhHsZYctusZyhdrQxI0yLEHJStuNVyuqSRdmY/2k/3TGaFR
J3DT8u0gvKcKXZNY+XAaSFGAnQHDDE5Rrhb2uhde4Qp3QziWQw6uqA==
-----END CERTIFICATE-----
