Certificate:
    Data:
        Version: 3 (0x2)
        Serial Number: 1 (0x1)
    Signature Algorithm: sha256WithRSAEncryption
        Issuer: C=DE, O=Domain.com Inc., OU=www.domain.com, CN=Domain.com High Assurance EV Root CA
        Validity
            Not Before: Jan  4 10:46:42 2019 GMT
            Not After : Jan  4 10:46:42 2020 GMT
        Subject: C=DE, O=Domain.com Inc, OU=www.domain.com, CN=Domain.com SHA2 High Assurance Server CA
        Subject Public Key Info:
            Public Key Algorithm: rsaEncryption
                Public-Key: (2048 bit)
                Modulus:
                    00:c5:b2:98:25:3f:7e:55:03:9e:6b:66:40:a3:2b:
                    da:31:4c:9a:c6:87:04:9d:4b:1b:3f:3a:f9:ed:89:
                    e2:38:f8:a9:aa:42:3e:4c:16:74:2b:97:d0:39:05:
                    cc:d4:65:71:90:90:2f:3b:cf:d9:46:10:5c:d8:3c:
                    ad:3a:be:40:78:66:c1:06:e4:9e:c9:e8:ed:31:37:
                    84:16:8e:58:e4:c1:2a:00:db:13:54:0f:c9:aa:f2:
                    34:dd:0e:fb:84:48:dd:0d:8a:2e:97:5b:f1:a1:df:
                    ca:bf:d0:af:36:f0:7a:e2:e6:87:b8:d4:a4:1d:01:
                    ac:20:b1:57:65:c2:11:58:8f:57:ee:56:1f:f2:e1:
                    f7:22:e4:8a:c6:17:6a:70:85:57:a7:e6:28:e4:e7:
                    b0:90:24:2b:f3:66:0b:33:ab:bc:98:dd:c6:d7:71:
                    0d:43:c4:29:27:db:72:80:37:f1:6f:c8:87:4f:e9:
                    55:c2:d5:5b:38:13:ae:b7:ac:2f:d2:cb:3c:e5:9d:
                    33:33:c6:f9:7e:3d:80:bc:7b:9e:c5:a9:31:e9:a0:
                    f8:8a:58:32:ae:8e:ea:0a:51:71:08:a0:59:ae:79:
                    10:1f:f0:30:73:92:af:81:e7:f6:c5:fd:0c:bd:6b:
                    ba:b5:94:3a:83:99:74:33:aa:3b:69:82:91:d7:d7:
                    eb:ff
                Exponent: 65537 (0x10001)
        X509v3 extensions:
            X509v3 Basic Constraints: critical
                CA:TRUE, pathlen:0
            X509v3 Key Usage: critical
                Digital Signature, Certificate Sign, CRL Sign
            X509v3 Extended Key Usage: 
                TLS Web Server Authentication, TLS Web Client Authentication
            Authority Information Access: 
                OCSP - URI:http://ocsp.domain.com

            X509v3 CRL Distribution Points: 

                Full Name:
                  URI:http://crl.domain.com/crls/global.crl

            X509v3 Subject Key Identifier: 
                C8:31:EC:62:86:DF:6D:C5:CC:8D:64:65:4E:18:67:2F:BE:48:38:3B
            X509v3 Authority Key Identifier: 
                keyid:73:2E:84:F3:4C:AB:CB:43:55:7C:38:E5:38:CB:3B:DC:9C:18:2B:83

    Signature Algorithm: sha256WithRSAEncryption
         64:46:37:55:24:ac:93:1b:e6:f0:28:a1:65:e3:1c:f6:73:71:
         8a:37:39:ef:30:58:d8:e4:26:79:21:b0:0f:3d:02:66:ba:01:
         a2:94:8d:3b:50:5b:f1:54:35:62:98:49:a2:4b:26:bb:be:2a:
         c6:02:d9:55:f5:33:3d:6b:e4:c9:07:72:d4:50:aa:f1:99:e9:
         3d:c5:04:5f:d6:74:96:28:40:e2:7f:77:7e:71:c2:77:f3:81:
         a6:5d:66:f4:22:6c:83:4b:9d:0b:8b:af:07:a2:3e:a1:cf:c5:
         60:69:e2:df:ef:38:b4:60:04:2a:1f:30:9b:59:01:28:91:75:
         d5:3f:d4:92:c9:f9:b0:4f:d0:e7:67:50:d4:77:67:cb:ef:58:
         cd:7a:ac:2e:ed:54:17:1f:92:7a:df:fb:9b:c5:55:00:c2:fe:
         a3:52:c0:0a:98:55:2f:be:a3:3c:74:42:01:eb:33:37:c6:99:
         45:20:91:79:40:7c:30:7e:a3:a6:27:27:66:ac:dc:23:df:b8:
         45:88:4d:ae:17:0d:2e:34:23:8f:a1:2e:bf:1e:d7:21:f2:e4:
         52:8f:65:1f:72:e1:41:b6:c5:cc:83:74:57:f9:ee:82:4c:dc:
         f8:f6:88:13:51:8b:73:2f:c6:95:47:75:01:a9:a7:fc:16:b5:
         58:44:d6:9e
-----BEGIN CERTIFICATE-----
MIIETzCCAzegAwIBAgIBATANBgkqhkiG9w0BAQsFADBvMQswCQYDVQQGEwJERTEY
MBYGA1UECgwPRG9tYWluLmNvbSBJbmMuMRcwFQYDVQQLDA53d3cuZG9tYWluLmNv
bTEtMCsGA1UEAwwkRG9tYWluLmNvbSBIaWdoIEFzc3VyYW5jZSBFViBSb290IENB
MB4XDTE5MDEwNDEwNDY0MloXDTIwMDEwNDEwNDY0MlowcjELMAkGA1UEBhMCREUx
FzAVBgNVBAoMDkRvbWFpbi5jb20gSW5jMRcwFQYDVQQLDA53d3cuZG9tYWluLmNv
bTExMC8GA1UEAwwoRG9tYWluLmNvbSBTSEEyIEhpZ2ggQXNzdXJhbmNlIFNlcnZl
ciBDQTCCASIwDQYJKoZIhvcNAQEBBQADggEPADCCAQoCggEBAMWymCU/flUDnmtm
QKMr2jFMmsaHBJ1LGz86+e2J4jj4qapCPkwWdCuX0DkFzNRlcZCQLzvP2UYQXNg8
rTq+QHhmwQbknsno7TE3hBaOWOTBKgDbE1QPyaryNN0O+4RI3Q2KLpdb8aHfyr/Q
rzbweuLmh7jUpB0BrCCxV2XCEViPV+5WH/Lh9yLkisYXanCFV6fmKOTnsJAkK/Nm
CzOrvJjdxtdxDUPEKSfbcoA38W/Ih0/pVcLVWzgTrresL9LLPOWdMzPG+X49gLx7
nsWpMemg+IpYMq6O6gpRcQigWa55EB/wMHOSr4Hn9sX9DL1rurWUOoOZdDOqO2mC
kdfX6/8CAwEAAaOB8jCB7zASBgNVHRMBAf8ECDAGAQH/AgEAMA4GA1UdDwEB/wQE
AwIBhjAdBgNVHSUEFjAUBggrBgEFBQcDAQYIKwYBBQUHAwIwMgYIKwYBBQUHAQEE
JjAkMCIGCCsGAQUFBzABhhZodHRwOi8vb2NzcC5kb21haW4uY29tMDYGA1UdHwQv
MC0wK6ApoCeGJWh0dHA6Ly9jcmwuZG9tYWluLmNvbS9jcmxzL2dsb2JhbC5jcmww
HQYDVR0OBBYEFMgx7GKG323FzI1kZU4YZy++SDg7MB8GA1UdIwQYMBaAFHMuhPNM
q8tDVXw45TjLO9ycGCuDMA0GCSqGSIb3DQEBCwUAA4IBAQBkRjdVJKyTG+bwKKFl
4xz2c3GKNznvMFjY5CZ5IbAPPQJmugGilI07UFvxVDVimEmiSya7virGAtlV9TM9
a+TJB3LUUKrxmek9xQRf1nSWKEDif3d+ccJ384GmXWb0ImyDS50Li68Hoj6hz8Vg
aeLf7zi0YAQqHzCbWQEokXXVP9SSyfmwT9DnZ1DUd2fL71jNeqwu7VQXH5J63/ub
xVUAwv6jUsAKmFUvvqM8dEIB6zM3xplFIJF5QHwwfqOmJydmrNwj37hFiE2uFw0u
NCOPoS6/Htch8uRSj2UfcuFBtsXMg3RX+e6CTNz49ogTUYtzL8aVR3UBqaf8FrVY
RNae
-----END CERTIFICATE-----
